target datalayout = "e-m:e-p270:32:32-p271:32:32-p272:64:64-i64:64-i128:128-f80:128-n8:16:32:64-S128"
target triple = "x86_64-pc-linux-gnu"

%struct.RComplex = type { %struct.RBasic, i64, i64 }
%struct.RBasic = type { i64, i64 }

; Function Attrs: nounwind sspstrong uwtable
define internal i64 @nucomp_marshal_dump(i64 noundef %0) #0 {
  %2 = alloca i64, align 8
  %3 = alloca i64, align 8
  %4 = alloca ptr, align 8
  store i64 %0, ptr %2, align 8, !tbaa !13
  call void @llvm.lifetime.start.p0(i64 8, ptr %3) #23
  call void @llvm.lifetime.start.p0(i64 8, ptr %4) #23
  %5 = load i64, ptr %2, align 8, !tbaa !13
  %6 = inttoptr i64 %5 to ptr
  store ptr %6, ptr %4, align 8, !tbaa !16
  %7 = load ptr, ptr %4, align 8, !tbaa !16
  %8 = getelementptr inbounds nuw %struct.RComplex, ptr %7, i32 0, i32 1
  %9 = load i64, ptr %8, align 8, !tbaa !19
  %10 = load ptr, ptr %4, align 8, !tbaa !16
  %11 = getelementptr inbounds nuw %struct.RComplex, ptr %10, i32 0, i32 2
  %12 = load i64, ptr %11, align 8, !tbaa !22
  %13 = call i64 @rb_assoc_new(i64 noundef %9, i64 noundef %12)
  store i64 %13, ptr %3, align 8, !tbaa !13
  %14 = load i64, ptr %3, align 8, !tbaa !13
  %15 = load i64, ptr %2, align 8, !tbaa !13
  call void @rb_copy_generic_ivar(i64 noundef %14, i64 noundef %15)
  %16 = load i64, ptr %3, align 8, !tbaa !13
  call void @llvm.lifetime.end.p0(i64 8, ptr %4) #23
  call void @llvm.lifetime.end.p0(i64 8, ptr %3) #23
  ret i64 %16
}