; Function Attrs: nounwind sspstrong uwtable
define internal noundef i64 @nucomp_marshal_dump(i64 noundef %0) #0 {
  %2 = inttoptr i64 %0 to ptr
  %3 = getelementptr inbounds nuw i8, ptr %2, i64 16
  %4 = load i64, ptr %3, align 8, !tbaa !15
  %5 = getelementptr inbounds nuw i8, ptr %2, i64 24
  %6 = load i64, ptr %5, align 8, !tbaa !18
  %7 = tail call i64 @rb_assoc_new(i64 noundef %4, i64 noundef %6) #17
  tail call void @rb_copy_generic_ivar(i64 noundef %7, i64 noundef %0) #17
  ret i64 %7
}